target datalayout = "e-m:e-p270:32:32-p271:32:32-p272:64:64-i64:64-i128:128-f80:128-n8:16:32:64-S128"
target triple = "x86_64-pc-linux-gnu"

@_ZL20g_memory_initialized = internal global i8 0, align 1
@_ZL12g_finalizing = internal global i8 0, align 1

; Function Attrs: mustprogress uwtable
define hidden void @_ZN6memory8finalizeEb(i1 noundef zeroext %0) #4 align 2 {
  %2 = alloca i8, align 1
  %3 = zext i1 %0 to i8
  store i8 %3, ptr %2, align 1, !tbaa !12
  %4 = load i8, ptr @_ZL20g_memory_initialized, align 1, !tbaa !12, !range !16, !noundef !17
  %5 = trunc i8 %4 to i1
  br i1 %5, label %6, label %11

6:                                                ; preds = %1
  store i8 1, ptr @_ZL12g_finalizing, align 1, !tbaa !12
  call void @_Z12mem_finalizev()
  store i8 0, ptr @_ZL20g_memory_initialized, align 1, !tbaa !12
  store i8 0, ptr @_ZL12g_finalizing, align 1, !tbaa !12
  %7 = load i8, ptr %2, align 1, !tbaa !12, !range !16, !noundef !17
  %8 = trunc i8 %7 to i1
  br i1 %8, label %9, label %10

9:                                                ; preds = %6
  call void @_ZN12scoped_timer8finalizeEv()
  br label %10

10:                                               ; preds = %9, %6
  br label %11

11:                                               ; preds = %10, %1
  ret void
}