; Function Attrs: mustprogress uwtable
define hidden void @_ZN6memory8finalizeEb(i1 noundef zeroext %0) local_unnamed_addr #3 align 2 {
  %.b1 = load i1, ptr @_ZL20g_memory_initialized, align 1
  br i1 %.b1, label %2, label %4

2:                                                ; preds = %1
  tail call void @_Z12mem_finalizev()
  store i1 false, ptr @_ZL20g_memory_initialized, align 1
  br i1 %0, label %3, label %4

3:                                                ; preds = %2
  tail call void @_ZN12scoped_timer8finalizeEv()
  br label %4

4:                                                ; preds = %2, %3, %1
  ret void
}